; Function Attrs: mustprogress nofree norecurse nounwind willreturn memory(argmem: readwrite, inaccessiblemem: readwrite) uwtable
define hidden void @_ZN5ZMark11finish_workEv(ptr noundef nonnull align 64 dereferenceable(2652) %0) local_unnamed_addr #3 align 2 {
  %2 = getelementptr inbounds i8, ptr %0, i64 2600
  %3 = load volatile i64, ptr %2, align 8
  %4 = getelementptr inbounds i8, ptr %0, i64 2616
  %5 = load i64, ptr %4, align 8
  %6 = add i64 %5, %3
  store i64 %6, ptr %4, align 8
  %7 = getelementptr inbounds i8, ptr %0, i64 2608
  %8 = load volatile i64, ptr %7, align 16
  %9 = getelementptr inbounds i8, ptr %0, i64 2624
  %10 = load i64, ptr %9, align 64
  %11 = add i64 %10, %8
  store i64 %11, ptr %9, align 64
  ret void
}